; Function Attrs: mustprogress uwtable
define noundef i32 @zmq_setsockopt(ptr noundef %0, i32 noundef %1, ptr noundef %2, i64 noundef %3) local_unnamed_addr #1 {
  %.not.i = icmp eq ptr %0, null
  br i1 %.not.i, label %_ZL16as_socket_base_tPv.exit.thread, label %5

5:                                                ; preds = %4
  %6 = tail call noundef zeroext i1 @_ZNK3zmq13socket_base_t9check_tagEv(ptr noundef nonnull align 8 dereferenceable(1825) %0)
  br i1 %6, label %_ZL16as_socket_base_tPv.exit, label %_ZL16as_socket_base_tPv.exit.thread

_ZL16as_socket_base_tPv.exit.thread:              ; preds = %4, %5
  %7 = tail call ptr @__errno_location() #20
  store i32 88, ptr %7, align 4, !tbaa !3
  br label %9

_ZL16as_socket_base_tPv.exit:                     ; preds = %5
  %8 = tail call noundef i32 @_ZN3zmq13socket_base_t10setsockoptEiPKvm(ptr noundef nonnull align 8 dereferenceable(1825) %0, i32 noundef %1, ptr noundef %2, i64 noundef %3)
  br label %9

9:                                                ; preds = %_ZL16as_socket_base_tPv.exit.thread, %_ZL16as_socket_base_tPv.exit
  %.0 = phi i32 [ %8, %_ZL16as_socket_base_tPv.exit ], [ -1, %_ZL16as_socket_base_tPv.exit.thread ]
  ret i32 %.0
}